; Function Attrs: nounwind uwtable
define dso_local range(i32 -2147483647, -2147483648) i32 @uv_chdir(ptr noundef %0) local_unnamed_addr #0 {
  %2 = tail call i32 @chdir(ptr noundef %0) #23
  %.not = icmp eq i32 %2, 0
  br i1 %.not, label %7, label %3

3:                                                ; preds = %1
  %4 = tail call ptr @__errno_location() #24
  %5 = load i32, ptr %4, align 4
  %6 = sub nsw i32 0, %5
  br label %7

7:                                                ; preds = %1, %3
  %.0 = phi i32 [ %6, %3 ], [ 0, %1 ]
  ret i32 %.0
}